; Function Attrs: mustprogress uwtable
define internal noalias noundef nonnull ptr @_ZZN8pybind116detail16type_caster_baseIN12_GLOBAL__N_19MyObject3EE21make_copy_constructorIS3_vEEDTcmnw_T_piclsr3stdE7declvalIKS6_EEEtlPFPvPKvEEEPS7_ENUlSA_E_8__invokeESA_(ptr nocapture noundef readonly %0) #1 align 2 {
  %2 = tail call noalias noundef nonnull dereferenceable(32) ptr @_Znwm(i64 noundef 32) #32
  %3 = getelementptr inbounds i8, ptr %2, i64 8
  tail call void @llvm.memset.p0.i64(ptr noundef nonnull align 8 dereferenceable(16) %3, i8 0, i64 16, i1 false)
  store ptr getelementptr inbounds ({ [4 x ptr] }, ptr @_ZTVN12_GLOBAL__N_19MyObject3E, i64 0, i32 0, i64 2), ptr %2, align 8
  %4 = getelementptr inbounds i8, ptr %2, i64 24
  %5 = getelementptr inbounds i8, ptr %0, i64 24
  %6 = load i32, ptr %5, align 8
  store i32 %6, ptr %4, align 8
  ret ptr %2
}